target datalayout = "e-m:e-p270:32:32-p271:32:32-p272:64:64-i64:64-i128:128-f80:128-n8:16:32:64-S128"
target triple = "x86_64-pc-linux-gnu"

%struct.sp_int = type { i16, i16, [129 x i64] }

; Function Attrs: nounwind uwtable
define i32 @sp_to_unsigned_bin_len_ct(ptr noundef %0, ptr noundef %1, i32 noundef %2) #0 {
  %4 = alloca ptr, align 8
  %5 = alloca ptr, align 8
  %6 = alloca i32, align 4
  %7 = alloca i32, align 4
  %8 = alloca i32, align 4
  %9 = alloca i32, align 4
  %10 = alloca i64, align 8
  %11 = alloca i64, align 8
  %12 = alloca i32, align 4
  store ptr %0, ptr %4, align 8, !tbaa !3
  store ptr %1, ptr %5, align 8, !tbaa !24
  store i32 %2, ptr %6, align 4, !tbaa !8
  call void @llvm.lifetime.start.p0(i64 4, ptr %7) #8
  store i32 0, ptr %7, align 4, !tbaa !8
  %13 = load ptr, ptr %4, align 8, !tbaa !3
  %14 = icmp eq ptr %13, null
  br i1 %14, label %21, label %15

15:                                               ; preds = %3
  %16 = load ptr, ptr %5, align 8, !tbaa !24
  %17 = icmp eq ptr %16, null
  br i1 %17, label %21, label %18

18:                                               ; preds = %15
  %19 = load i32, ptr %6, align 4, !tbaa !8
  %20 = icmp slt i32 %19, 0
  br i1 %20, label %21, label %22

21:                                               ; preds = %18, %15, %3
  store i32 -98, ptr %7, align 4, !tbaa !8
  br label %22

22:                                               ; preds = %21, %18
  %23 = load i32, ptr %7, align 4, !tbaa !8
  %24 = icmp eq i32 %23, 0
  br i1 %24, label %25, label %80

25:                                               ; preds = %22
  call void @llvm.lifetime.start.p0(i64 4, ptr %8) #8
  call void @llvm.lifetime.start.p0(i64 4, ptr %9) #8
  call void @llvm.lifetime.start.p0(i64 8, ptr %10) #8
  store i64 -1, ptr %10, align 8, !tbaa !16
  call void @llvm.lifetime.start.p0(i64 8, ptr %11) #8
  store i32 0, ptr %9, align 4, !tbaa !8
  %26 = load i32, ptr %6, align 4, !tbaa !8
  %27 = sub nsw i32 %26, 1
  store i32 %27, ptr %8, align 4, !tbaa !8
  br label %28

28:                                               ; preds = %61, %25
  %29 = load i32, ptr %8, align 4, !tbaa !8
  %30 = icmp sge i32 %29, 0
  br i1 %30, label %31, label %79

31:                                               ; preds = %28
  call void @llvm.lifetime.start.p0(i64 4, ptr %12) #8
  %32 = load ptr, ptr %4, align 8, !tbaa !3
  %33 = getelementptr inbounds nuw %struct.sp_int, ptr %32, i32 0, i32 2
  %34 = load i32, ptr %9, align 4, !tbaa !8
  %35 = zext i32 %34 to i64
  %36 = getelementptr inbounds nuw [129 x i64], ptr %33, i64 0, i64 %35
  %37 = load i64, ptr %36, align 8, !tbaa !16
  store i64 %37, ptr %11, align 8, !tbaa !16
  store i32 0, ptr %12, align 4, !tbaa !8
  br label %38

38:                                               ; preds = %58, %31
  %39 = load i32, ptr %8, align 4, !tbaa !8
  %40 = icmp sge i32 %39, 0
  br i1 %40, label %41, label %44

41:                                               ; preds = %38
  %42 = load i32, ptr %12, align 4, !tbaa !8
  %43 = icmp ult i32 %42, 8
  br label %44

44:                                               ; preds = %41, %38
  %45 = phi i1 [ false, %38 ], [ %43, %41 ]
  br i1 %45, label %46, label %61

46:                                               ; preds = %44
  %47 = load i64, ptr %11, align 8, !tbaa !16
  %48 = load i64, ptr %10, align 8, !tbaa !16
  %49 = and i64 %47, %48
  %50 = trunc i64 %49 to i8
  %51 = load ptr, ptr %5, align 8, !tbaa !24
  %52 = load i32, ptr %8, align 4, !tbaa !8
  %53 = add nsw i32 %52, -1
  store i32 %53, ptr %8, align 4, !tbaa !8
  %54 = sext i32 %52 to i64
  %55 = getelementptr inbounds i8, ptr %51, i64 %54
  store i8 %50, ptr %55, align 1, !tbaa !26
  %56 = load i64, ptr %11, align 8, !tbaa !16
  %57 = lshr i64 %56, 8
  store i64 %57, ptr %11, align 8, !tbaa !16
  br label %58

58:                                               ; preds = %46
  %59 = load i32, ptr %12, align 4, !tbaa !8
  %60 = add i32 %59, 1
  store i32 %60, ptr %12, align 4, !tbaa !8
  br label %38, !llvm.loop !127

61:                                               ; preds = %44
  %62 = load i32, ptr %9, align 4, !tbaa !8
  %63 = load ptr, ptr %4, align 8, !tbaa !3
  %64 = getelementptr inbounds nuw %struct.sp_int, ptr %63, i32 0, i32 0
  %65 = load i16, ptr %64, align 8, !tbaa !15
  %66 = zext i16 %65 to i32
  %67 = sub i32 %66, 1
  %68 = icmp ult i32 %62, %67
  %69 = zext i1 %68 to i32
  %70 = sext i32 %69 to i64
  %71 = sub i64 0, %70
  %72 = load i64, ptr %10, align 8, !tbaa !16
  %73 = and i64 %72, %71
  store i64 %73, ptr %10, align 8, !tbaa !16
  %74 = load i64, ptr %10, align 8, !tbaa !16
  %75 = and i64 1, %74
  %76 = trunc i64 %75 to i32
  %77 = load i32, ptr %9, align 4, !tbaa !8
  %78 = add i32 %77, %76
  store i32 %78, ptr %9, align 4, !tbaa !8
  call void @llvm.lifetime.end.p0(i64 4, ptr %12) #8
  br label %28, !llvm.loop !128

79:                                               ; preds = %28
  call void @llvm.lifetime.end.p0(i64 8, ptr %11) #8
  call void @llvm.lifetime.end.p0(i64 8, ptr %10) #8
  call void @llvm.lifetime.end.p0(i64 4, ptr %9) #8
  call void @llvm.lifetime.end.p0(i64 4, ptr %8) #8
  br label %80

80:                                               ; preds = %79, %22
  %81 = load i32, ptr %7, align 4, !tbaa !8
  call void @llvm.lifetime.end.p0(i64 4, ptr %7) #8
  ret i32 %81
}