; Function Attrs: nofree norecurse nosync nounwind memory(argmem: readwrite) uwtable
define range(i32 -98, 1) i32 @sp_to_unsigned_bin_len_ct(ptr noundef readonly captures(address_is_null) %0, ptr noundef writeonly captures(address_is_null) %1, i32 noundef %2) local_unnamed_addr #8 {
  %4 = icmp ne ptr %0, null
  %5 = icmp ne ptr %1, null
  %or.cond.not31 = and i1 %4, %5
  %6 = icmp sgt i32 %2, -1
  %or.cond3.not = and i1 %or.cond.not31, %6
  br i1 %or.cond3.not, label %7, label %.loopexit

7:                                                ; preds = %3
  %.not = icmp eq i32 %2, 0
  br i1 %.not, label %.loopexit, label %.lr.ph

.lr.ph:                                           ; preds = %7
  %8 = add nsw i32 %2, -1
  %9 = getelementptr inbounds nuw i8, ptr %0, i64 8
  br label %10

10:                                               ; preds = %.lr.ph, %25
  %.02537 = phi i64 [ -1, %.lr.ph ], [ %30, %25 ]
  %.02636 = phi i32 [ 0, %.lr.ph ], [ %33, %25 ]
  %.02735 = phi i32 [ %8, %.lr.ph ], [ %indvars, %25 ]
  %11 = zext i32 %.02636 to i64
  %12 = getelementptr inbounds nuw [129 x i64], ptr %9, i64 0, i64 %11
  %13 = load i64, ptr %12, align 8, !tbaa !8
  %14 = zext i32 %.02735 to i64
  br label %15

15:                                               ; preds = %10, %15
  %indvars.iv = phi i64 [ %14, %10 ], [ %indvars.iv.next, %15 ]
  %.034 = phi i32 [ 0, %10 ], [ %20, %15 ]
  %.02433 = phi i64 [ %13, %10 ], [ %19, %15 ]
  %16 = and i64 %.02433, %.02537
  %17 = trunc i64 %16 to i8
  %indvars.iv.next = add nsw i64 %indvars.iv, -1
  %18 = getelementptr inbounds nuw i8, ptr %1, i64 %indvars.iv
  store i8 %17, ptr %18, align 1, !tbaa !13
  %19 = lshr i64 %.02433, 8
  %20 = add nuw nsw i32 %.034, 1
  %21 = trunc nuw i64 %indvars.iv to i32
  %22 = icmp sgt i32 %21, 0
  %23 = icmp samesign ult i32 %.034, 7
  %24 = select i1 %22, i1 %23, i1 false
  br i1 %24, label %15, label %25, !llvm.loop !112

25:                                               ; preds = %15
  %indvars = trunc i64 %indvars.iv.next to i32
  %26 = load i16, ptr %0, align 8, !tbaa !12
  %27 = zext i16 %26 to i32
  %28 = add nsw i32 %27, -1
  %29 = icmp ult i32 %.02636, %28
  %30 = select i1 %29, i64 %.02537, i64 0
  %31 = trunc nsw i64 %30 to i32
  %32 = and i32 %31, 1
  %33 = add i32 %32, %.02636
  br i1 %22, label %10, label %.loopexit, !llvm.loop !113

.loopexit:                                        ; preds = %25, %7, %3
  %spec.select = phi i32 [ -98, %3 ], [ 0, %7 ], [ 0, %25 ]
  ret i32 %spec.select
}